target datalayout = "e-m:e-p270:32:32-p271:32:32-p272:64:64-i64:64-i128:128-f80:128-n8:16:32:64-S128"
target triple = "x86_64-pc-linux-gnu"

%"class.fmt::v11::basic_string_view" = type { ptr, i64 }
%"class.fmt::v11::buffered_file" = type { ptr }
%"class.std::system_error" = type { %"class.std::runtime_error", %"class.std::error_code" }
%"class.std::runtime_error" = type { %"class.std::exception", %"struct.std::__cow_string" }
%"class.std::exception" = type { ptr }
%"struct.std::__cow_string" = type { %union.anon }
%union.anon = type { ptr }
%"class.std::error_code" = type { i32, ptr }
%"class.fmt::v11::basic_format_args" = type { i64, %union.anon.97 }
%union.anon.97 = type { ptr }
%"class.fmt::v11::detail::value" = type { %union.anon.98 }
%union.anon.98 = type { i128 }
%"struct.fmt::v11::fstring.0" = type { %"class.fmt::v11::basic_string_view" }
%struct.FMT_COMPILE_STRING.1 = type { i8 }
%class.anon.2 = type { i8 }
%"struct.fmt::v11::detail::format_arg_store.99" = type { [1 x %"class.fmt::v11::detail::value"] }

@.str = private unnamed_addr constant [18 x i8] c"cannot close file\00", align 1
@_ZTISt12system_error = external constant ptr
@_ZN12_GLOBAL__N_112fclose_countE = internal global i32 0, align 4
@__const.fstring.sv.118 = private unnamed_addr constant %"class.fmt::v11::basic_string_view" { ptr @.str, i64 17 }, align 8

; Function Attrs: mustprogress nounwind uwtable
define linkonce_odr hidden void @_ZN3fmt3v1117basic_string_viewIcEC2EPKcm(ptr noundef nonnull align 8 dereferenceable(16) %0, ptr noundef %1, i64 noundef %2) unnamed_addr #0 comdat align 2 {
  %4 = alloca ptr, align 8
  %5 = alloca ptr, align 8
  %6 = alloca i64, align 8
  store ptr %0, ptr %4, align 8, !tbaa !109
  store ptr %1, ptr %5, align 8, !tbaa !17
  store i64 %2, ptr %6, align 8, !tbaa !26
  %7 = load ptr, ptr %4, align 8
  %8 = getelementptr inbounds nuw %"class.fmt::v11::basic_string_view", ptr %7, i32 0, i32 0
  %9 = load ptr, ptr %5, align 8, !tbaa !17
  store ptr %9, ptr %8, align 8, !tbaa !111
  %10 = getelementptr inbounds nuw %"class.fmt::v11::basic_string_view", ptr %7, i32 0, i32 1
  %11 = load i64, ptr %6, align 8, !tbaa !26
  store i64 %11, ptr %10, align 8, !tbaa !113
  ret void
}

; Function Attrs: mustprogress nounwind uwtable
define linkonce_odr hidden noundef i32 @_ZNSt11char_traitsIcE11to_int_typeERKc(ptr noundef nonnull align 1 dereferenceable(1) %0) #0 comdat align 2 {
  %2 = alloca ptr, align 8
  store ptr %0, ptr %2, align 8, !tbaa !17
  %3 = load ptr, ptr %2, align 8, !tbaa !17
  %4 = load i8, ptr %3, align 1, !tbaa !53
  %5 = zext i8 %4 to i32
  ret i32 %5
}

; Function Attrs: mustprogress nounwind uwtable
define linkonce_odr hidden void @_ZN3fmt3v119monostateC2Ev(ptr noundef nonnull align 1 dereferenceable(1) %0) unnamed_addr #0 comdat align 2 {
  %2 = alloca ptr, align 8
  store ptr %0, ptr %2, align 8, !tbaa !335
  ret void
}

; Function Attrs: mustprogress nounwind uwtable
define linkonce_odr hidden { ptr, i64 } @_ZN3fmt3v116detail22compile_string_to_viewIcLm18EEENS0_17basic_string_viewIT_EERAT0__KS4_(ptr noundef nonnull align 1 dereferenceable(18) %0) #0 comdat {
  %2 = alloca %"class.fmt::v11::basic_string_view", align 8
  %3 = alloca ptr, align 8
  store ptr %0, ptr %3, align 8, !tbaa !17
  %4 = load ptr, ptr %3, align 8, !tbaa !17
  %5 = getelementptr inbounds [18 x i8], ptr %4, i64 0, i64 0
  %6 = load ptr, ptr %3, align 8, !tbaa !17
  %7 = getelementptr inbounds nuw [18 x i8], ptr %6, i64 0, i64 17
  %8 = call noundef i32 @_ZNSt11char_traitsIcE11to_int_typeERKc(ptr noundef nonnull align 1 dereferenceable(1) %7) #16
  %9 = icmp eq i32 %8, 0
  %10 = select i1 %9, i32 1, i32 0
  %11 = sext i32 %10 to i64
  %12 = sub i64 18, %11
  call void @_ZN3fmt3v1117basic_string_viewIcEC2EPKcm(ptr noundef nonnull align 8 dereferenceable(16) %2, ptr noundef %5, i64 noundef %12) #16
  %13 = load { ptr, i64 }, ptr %2, align 8
  ret { ptr, i64 } %13
}

; Function Attrs: alwaysinline mustprogress nounwind uwtable
define linkonce_odr hidden void @"_ZN3fmt3v1117basic_format_argsINS0_7contextEEC2ILi0ELi0ELy0ETnNSt9enable_ifIXleT_LNS0_6detail4$_14E15EEiE4typeELi0EEERKNS6_16format_arg_storeIS2_XT_EXT0_EXT1_EEE"(ptr noundef nonnull align 8 dereferenceable(16) %0, ptr noundef nonnull align 16 dereferenceable(16) %1) unnamed_addr #8 comdat align 2 {
  %3 = alloca ptr, align 8
  %4 = alloca ptr, align 8
  store ptr %0, ptr %3, align 8, !tbaa !327
  store ptr %1, ptr %4, align 8, !tbaa !333
  %5 = load ptr, ptr %3, align 8
  %6 = getelementptr inbounds nuw %"class.fmt::v11::basic_format_args", ptr %5, i32 0, i32 0
  store i64 0, ptr %6, align 8, !tbaa !331
  %7 = getelementptr inbounds nuw %"class.fmt::v11::basic_format_args", ptr %5, i32 0, i32 1
  %8 = load ptr, ptr %4, align 8, !tbaa !333
  %9 = getelementptr inbounds nuw %"struct.fmt::v11::detail::format_arg_store.99", ptr %8, i32 0, i32 0
  %10 = getelementptr inbounds [1 x %"class.fmt::v11::detail::value"], ptr %9, i64 0, i64 0
  store ptr %10, ptr %7, align 8, !tbaa !53
  ret void
}

; Function Attrs: alwaysinline mustprogress uwtable
define linkonce_odr hidden void @_ZN3fmt3v116detail5valueINS0_7contextEEC2Ev(ptr noundef nonnull align 16 dereferenceable(16) %0) unnamed_addr #7 comdat align 2 {
  %2 = alloca ptr, align 8
  store ptr %0, ptr %2, align 8, !tbaa !325
  %3 = load ptr, ptr %2, align 8
  %4 = getelementptr inbounds nuw %"class.fmt::v11::detail::value", ptr %3, i32 0, i32 0
  call void @_ZN3fmt3v119monostateC2Ev(ptr noundef nonnull align 1 dereferenceable(1) %4)
  ret void
}

; Function Attrs: mustprogress nounwind uwtable
define linkonce_odr hidden void @_ZN3fmt3v116detail13ignore_unusedIJiEEEvDpRKT_(ptr noundef nonnull align 4 dereferenceable(4) %0) #0 comdat {
  %2 = alloca ptr, align 8
  store ptr %0, ptr %2, align 8, !tbaa !64
  ret void
}

; Function Attrs: mustprogress nounwind uwtable
define linkonce_odr hidden void @_ZN3fmt3v116detail13ignore_unusedIJNS0_17basic_string_viewIcEEEEEvDpRKT_(ptr noundef nonnull align 8 dereferenceable(16) %0) #0 comdat {
  %2 = alloca ptr, align 8
  store ptr %0, ptr %2, align 8, !tbaa !109
  ret void
}

; Function Attrs: mustprogress uwtable
define internal { ptr, i64 } @"_ZZZN3fmt3v1113buffered_file5closeEvENK3$_0clEvENK18FMT_COMPILE_STRINGcvNS0_17basic_string_viewIcEEEv"(ptr noundef nonnull align 1 dereferenceable(1) %0) #1 align 2 {
  %2 = alloca %"class.fmt::v11::basic_string_view", align 8
  %3 = alloca ptr, align 8
  store ptr %0, ptr %3, align 8, !tbaa !35
  %4 = call { ptr, i64 } @_ZN3fmt3v116detail22compile_string_to_viewIcLm18EEENS0_17basic_string_viewIT_EERAT0__KS4_(ptr noundef nonnull align 1 dereferenceable(18) @.str)
  %5 = getelementptr inbounds nuw { ptr, i64 }, ptr %2, i32 0, i32 0
  %6 = extractvalue { ptr, i64 } %4, 0
  store ptr %6, ptr %5, align 8
  %7 = getelementptr inbounds nuw { ptr, i64 }, ptr %2, i32 0, i32 1
  %8 = extractvalue { ptr, i64 } %4, 1
  store i64 %8, ptr %7, align 8
  %9 = load { ptr, i64 }, ptr %2, align 8
  ret { ptr, i64 } %9
}

; Function Attrs: mustprogress uwtable
define linkonce_odr hidden void @_ZN3fmt3v1112system_errorIJEEESt12system_erroriNS0_7fstringIJDpT_EE1tEDpOS4_(ptr dead_on_unwind noalias writable sret(%"class.std::system_error") align 8 %0, i32 noundef %1, ptr %2, i64 %3) #1 comdat {
  %5 = alloca ptr, align 8
  %6 = alloca %"struct.fmt::v11::fstring.0", align 8
  %7 = alloca i32, align 4
  %8 = alloca %"class.fmt::v11::basic_string_view", align 8
  %9 = alloca %"class.fmt::v11::basic_format_args", align 8
  %10 = alloca %"struct.fmt::v11::detail::format_arg_store.99", align 16
  store ptr %0, ptr %5, align 8
  %11 = getelementptr inbounds nuw { ptr, i64 }, ptr %6, i32 0, i32 0
  store ptr %2, ptr %11, align 8
  %12 = getelementptr inbounds nuw { ptr, i64 }, ptr %6, i32 0, i32 1
  store i64 %3, ptr %12, align 8
  store i32 %1, ptr %7, align 4, !tbaa !12
  %13 = load i32, ptr %7, align 4, !tbaa !12
  %14 = getelementptr inbounds nuw %"struct.fmt::v11::fstring.0", ptr %6, i32 0, i32 0
  call void @llvm.memcpy.p0.p0.i64(ptr align 8 %8, ptr align 8 %14, i64 16, i1 false), !tbaa.struct !25
  call void @llvm.lifetime.start.p0(i64 16, ptr %10) #16
  %15 = getelementptr inbounds nuw %"struct.fmt::v11::detail::format_arg_store.99", ptr %10, i32 0, i32 0
  %16 = getelementptr inbounds %"class.fmt::v11::detail::value", ptr %15, i64 1
  br label %17

17:                                               ; preds = %17, %4
  %18 = phi ptr [ %15, %4 ], [ %19, %17 ]
  call void @_ZN3fmt3v116detail5valueINS0_7contextEEC2Ev(ptr noundef nonnull align 16 dereferenceable(16) %18)
  %19 = getelementptr inbounds %"class.fmt::v11::detail::value", ptr %18, i64 1
  %20 = icmp eq ptr %19, %16
  br i1 %20, label %21, label %17

21:                                               ; preds = %17
  call void @"_ZN3fmt3v1117basic_format_argsINS0_7contextEEC2ILi0ELi0ELy0ETnNSt9enable_ifIXleT_LNS0_6detail4$_14E15EEiE4typeELi0EEERKNS6_16format_arg_storeIS2_XT_EXT0_EXT1_EEE"(ptr noundef nonnull align 8 dereferenceable(16) %9, ptr noundef nonnull align 16 dereferenceable(16) %10)
  %22 = getelementptr inbounds nuw { ptr, i64 }, ptr %8, i32 0, i32 0
  %23 = load ptr, ptr %22, align 8
  %24 = getelementptr inbounds nuw { ptr, i64 }, ptr %8, i32 0, i32 1
  %25 = load i64, ptr %24, align 8
  %26 = getelementptr inbounds nuw { i64, ptr }, ptr %9, i32 0, i32 0
  %27 = load i64, ptr %26, align 8
  %28 = getelementptr inbounds nuw { i64, ptr }, ptr %9, i32 0, i32 1
  %29 = load ptr, ptr %28, align 8
  call void @_ZN3fmt3v1113vsystem_errorEiNS0_17basic_string_viewIcEENS0_17basic_format_argsINS0_7contextEEE(ptr dead_on_unwind writable sret(%"class.std::system_error") align 8 %0, i32 noundef %13, ptr %23, i64 %25, i64 %27, ptr %29)
  call void @llvm.lifetime.end.p0(i64 16, ptr %10) #16
  ret void
}

; Function Attrs: alwaysinline mustprogress uwtable
define internal void @"_ZN3fmt3v117fstringIJEEC2IZZNS0_13buffered_file5closeEvENK3$_0clEvE18FMT_COMPILE_STRINGTnNSt9enable_ifIXaasr3std10is_base_ofINS0_6detail14compile_stringET_EE5valuesr3std7is_sameINSA_9char_typeEcEE5valueEiE4typeELi0EEERKSA_"(ptr noundef nonnull align 8 dereferenceable(16) %0, ptr noundef nonnull align 1 dereferenceable(1) %1) unnamed_addr #7 align 2 {
  %3 = alloca ptr, align 8
  %4 = alloca ptr, align 8
  %5 = alloca %struct.FMT_COMPILE_STRING.1, align 1
  %6 = alloca %"class.fmt::v11::basic_string_view", align 8
  %7 = alloca i32, align 4
  store ptr %0, ptr %3, align 8, !tbaa !33
  store ptr %1, ptr %4, align 8, !tbaa !35
  %8 = load ptr, ptr %3, align 8
  call void @llvm.lifetime.start.p0(i64 1, ptr %5) #16
  %9 = call { ptr, i64 } @"_ZZZN3fmt3v1113buffered_file5closeEvENK3$_0clEvENK18FMT_COMPILE_STRINGcvNS0_17basic_string_viewIcEEEv"(ptr noundef nonnull align 1 dereferenceable(1) %5)
  %10 = getelementptr inbounds nuw { ptr, i64 }, ptr %8, i32 0, i32 0
  %11 = extractvalue { ptr, i64 } %9, 0
  store ptr %11, ptr %10, align 8
  %12 = getelementptr inbounds nuw { ptr, i64 }, ptr %8, i32 0, i32 1
  %13 = extractvalue { ptr, i64 } %9, 1
  store i64 %13, ptr %12, align 8
  call void @llvm.lifetime.end.p0(i64 1, ptr %5) #16
  call void @llvm.lifetime.start.p0(i64 16, ptr %6) #16
  call void @llvm.memcpy.p0.p0.i64(ptr align 8 %6, ptr align 8 @__const.fstring.sv.118, i64 16, i1 false)
  call void @llvm.lifetime.start.p0(i64 4, ptr %7) #16
  store i32 0, ptr %7, align 4, !tbaa !12
  call void @_ZN3fmt3v116detail13ignore_unusedIJiEEEvDpRKT_(ptr noundef nonnull align 4 dereferenceable(4) %7)
  call void @llvm.lifetime.end.p0(i64 4, ptr %7) #16
  call void @llvm.lifetime.end.p0(i64 16, ptr %6) #16
  ret void
}

; Function Attrs: inlinehint mustprogress uwtable
define internal void @"_ZZN3fmt3v1113buffered_file5closeEvENK3$_0clEv"(ptr noundef nonnull align 1 dereferenceable(1) %0) #6 align 2 {
  %2 = alloca ptr, align 8
  %3 = alloca %"class.fmt::v11::basic_string_view", align 8
  %4 = alloca %struct.FMT_COMPILE_STRING.1, align 1
  store ptr %0, ptr %2, align 8, !tbaa !28
  call void @llvm.lifetime.start.p0(i64 16, ptr %3) #16
  call void @llvm.lifetime.start.p0(i64 1, ptr %4) #16
  %5 = call { ptr, i64 } @"_ZZZN3fmt3v1113buffered_file5closeEvENK3$_0clEvENK18FMT_COMPILE_STRINGcvNS0_17basic_string_viewIcEEEv"(ptr noundef nonnull align 1 dereferenceable(1) %4)
  %6 = getelementptr inbounds nuw { ptr, i64 }, ptr %3, i32 0, i32 0
  %7 = extractvalue { ptr, i64 } %5, 0
  store ptr %7, ptr %6, align 8
  %8 = getelementptr inbounds nuw { ptr, i64 }, ptr %3, i32 0, i32 1
  %9 = extractvalue { ptr, i64 } %5, 1
  store i64 %9, ptr %8, align 8
  call void @_ZN3fmt3v116detail13ignore_unusedIJNS0_17basic_string_viewIcEEEEEvDpRKT_(ptr noundef nonnull align 8 dereferenceable(16) %3)
  call void @llvm.lifetime.end.p0(i64 1, ptr %4) #16
  call void @llvm.lifetime.end.p0(i64 16, ptr %3) #16
  ret void
}

; Function Attrs: mustprogress uwtable
define hidden noundef i32 @_ZN4test6fcloseEP8_IO_FILE(ptr noundef %0) #1 {
  %2 = alloca i32, align 4
  %3 = alloca ptr, align 8
  store ptr %0, ptr %3, align 8, !tbaa !14
  %4 = load i32, ptr @_ZN12_GLOBAL__N_112fclose_countE, align 4, !tbaa !12
  %5 = icmp ne i32 %4, 0
  br i1 %5, label %6, label %13

6:                                                ; preds = %1
  %7 = load i32, ptr @_ZN12_GLOBAL__N_112fclose_countE, align 4, !tbaa !12
  %8 = add nsw i32 %7, 1
  store i32 %8, ptr @_ZN12_GLOBAL__N_112fclose_countE, align 4, !tbaa !12
  %9 = icmp ne i32 %7, 3
  br i1 %9, label %10, label %12

10:                                               ; preds = %6
  %11 = call ptr @__errno_location() #20
  store i32 4, ptr %11, align 4, !tbaa !12
  store i32 -1, ptr %2, align 4
  br label %16

12:                                               ; preds = %6
  br label %13

13:                                               ; preds = %12, %1
  %14 = load ptr, ptr %3, align 8, !tbaa !14
  %15 = call i32 @fclose(ptr noundef %14)
  store i32 %15, ptr %2, align 4
  br label %16

16:                                               ; preds = %13, %10
  %17 = load i32, ptr %2, align 4
  ret i32 %17
}

; Function Attrs: mustprogress uwtable
define hidden void @_ZN3fmt3v1113buffered_file5closeEv(ptr noundef nonnull align 8 dereferenceable(8) %0) #1 align 2 personality ptr @__gxx_personality_v0 {
  %2 = alloca ptr, align 8
  %3 = alloca i32, align 4
  %4 = alloca %"struct.fmt::v11::fstring.0", align 8
  %5 = alloca %struct.FMT_COMPILE_STRING.1, align 1
  %6 = alloca %class.anon.2, align 1
  %7 = alloca ptr, align 8
  %8 = alloca i32, align 4
  %9 = alloca i1, align 1
  store ptr %0, ptr %2, align 8, !tbaa !4
  %10 = load ptr, ptr %2, align 8
  %11 = getelementptr inbounds nuw %"class.fmt::v11::buffered_file", ptr %10, i32 0, i32 0
  %12 = load ptr, ptr %11, align 8, !tbaa !9
  %13 = icmp ne ptr %12, null
  br i1 %13, label %15, label %14

14:                                               ; preds = %1
  br label %41

15:                                               ; preds = %1
  call void @llvm.lifetime.start.p0(i64 4, ptr %3) #16
  %16 = getelementptr inbounds nuw %"class.fmt::v11::buffered_file", ptr %10, i32 0, i32 0
  %17 = load ptr, ptr %16, align 8, !tbaa !9
  %18 = call noundef i32 @_ZN4test6fcloseEP8_IO_FILE(ptr noundef %17)
  store i32 %18, ptr %3, align 4, !tbaa !12
  %19 = getelementptr inbounds nuw %"class.fmt::v11::buffered_file", ptr %10, i32 0, i32 0
  store ptr null, ptr %19, align 8, !tbaa !9
  %20 = load i32, ptr %3, align 4, !tbaa !12
  %21 = icmp ne i32 %20, 0
  br i1 %21, label %22, label %40

22:                                               ; preds = %15
  store i1 true, ptr %9, align 1
  %23 = call ptr @__cxa_allocate_exception(i64 32) #16
  %24 = call ptr @__errno_location() #20
  %25 = load i32, ptr %24, align 4, !tbaa !12
  call void @llvm.lifetime.start.p0(i64 1, ptr %5) #16
  call void @llvm.lifetime.start.p0(i64 1, ptr %6) #16
  invoke void @"_ZZN3fmt3v1113buffered_file5closeEvENK3$_0clEv"(ptr noundef nonnull align 1 dereferenceable(1) %6)
          to label %26 unwind label %33

26:                                               ; preds = %22
  invoke void @"_ZN3fmt3v117fstringIJEEC2IZZNS0_13buffered_file5closeEvENK3$_0clEvE18FMT_COMPILE_STRINGTnNSt9enable_ifIXaasr3std10is_base_ofINS0_6detail14compile_stringET_EE5valuesr3std7is_sameINSA_9char_typeEcEE5valueEiE4typeELi0EEERKSA_"(ptr noundef nonnull align 8 dereferenceable(16) %4, ptr noundef nonnull align 1 dereferenceable(1) %5)
          to label %27 unwind label %33

27:                                               ; preds = %26
  %28 = getelementptr inbounds nuw { ptr, i64 }, ptr %4, i32 0, i32 0
  %29 = load ptr, ptr %28, align 8
  %30 = getelementptr inbounds nuw { ptr, i64 }, ptr %4, i32 0, i32 1
  %31 = load i64, ptr %30, align 8
  invoke void @_ZN3fmt3v1112system_errorIJEEESt12system_erroriNS0_7fstringIJDpT_EE1tEDpOS4_(ptr dead_on_unwind writable sret(%"class.std::system_error") align 8 %23, i32 noundef %25, ptr %29, i64 %31)
          to label %32 unwind label %33

32:                                               ; preds = %27
  store i1 false, ptr %9, align 1
  invoke void @__cxa_throw(ptr %23, ptr @_ZTISt12system_error, ptr @_ZNSt12system_errorD1Ev) #22
          to label %47 unwind label %33

33:                                               ; preds = %32, %27, %26, %22
  %34 = landingpad { ptr, i32 }
          cleanup
  %35 = extractvalue { ptr, i32 } %34, 0
  store ptr %35, ptr %7, align 8
  %36 = extractvalue { ptr, i32 } %34, 1
  store i32 %36, ptr %8, align 4
  call void @llvm.lifetime.end.p0(i64 1, ptr %6) #16
  call void @llvm.lifetime.end.p0(i64 1, ptr %5) #16
  %37 = load i1, ptr %9, align 1
  br i1 %37, label %38, label %39

38:                                               ; preds = %33
  call void @__cxa_free_exception(ptr %23) #16
  br label %39

39:                                               ; preds = %38, %33
  call void @llvm.lifetime.end.p0(i64 4, ptr %3) #16
  br label %42

40:                                               ; preds = %15
  call void @llvm.lifetime.end.p0(i64 4, ptr %3) #16
  br label %41

41:                                               ; preds = %40, %14
  ret void

42:                                               ; preds = %39
  %43 = load ptr, ptr %7, align 8
  %44 = load i32, ptr %8, align 4
  %45 = insertvalue { ptr, i32 } poison, ptr %43, 0
  %46 = insertvalue { ptr, i32 } %45, i32 %44, 1
  resume { ptr, i32 } %46

47:                                               ; preds = %32
  unreachable
}