; Function Attrs: mustprogress uwtable
define hidden void @_ZN3fmt3v1113buffered_file5closeEv(ptr noundef nonnull align 8 captures(none) dereferenceable(8) %0) local_unnamed_addr #6 align 2 personality ptr @__gxx_personality_v0 {
  %2 = alloca %"struct.fmt::v11::detail::format_arg_store.99", align 16
  %3 = load ptr, ptr %0, align 8, !tbaa !4
  %.not = icmp eq ptr %3, null
  br i1 %.not, label %17, label %4

4:                                                ; preds = %1
  %5 = load i32, ptr @_ZN12_GLOBAL__N_112fclose_countE, align 4, !tbaa !10
  %.not.i = icmp eq i32 %5, 0
  br i1 %.not.i, label %_ZN4test6fcloseEP8_IO_FILE.exit, label %6

6:                                                ; preds = %4
  %7 = add nsw i32 %5, 1
  store i32 %7, ptr @_ZN12_GLOBAL__N_112fclose_countE, align 4, !tbaa !10
  %.not2.i = icmp eq i32 %5, 3
  br i1 %.not2.i, label %_ZN4test6fcloseEP8_IO_FILE.exit, label %_ZN4test6fcloseEP8_IO_FILE.exit.thread

_ZN4test6fcloseEP8_IO_FILE.exit.thread:           ; preds = %6
  %8 = tail call ptr @__errno_location() #28
  store i32 4, ptr %8, align 4, !tbaa !10
  store ptr null, ptr %0, align 8, !tbaa !4
  br label %10

_ZN4test6fcloseEP8_IO_FILE.exit:                  ; preds = %4, %6
  %9 = tail call i32 @fclose(ptr noundef nonnull %3)
  store ptr null, ptr %0, align 8, !tbaa !4
  %.not5 = icmp eq i32 %9, 0
  br i1 %.not5, label %17, label %10

10:                                               ; preds = %_ZN4test6fcloseEP8_IO_FILE.exit, %_ZN4test6fcloseEP8_IO_FILE.exit.thread
  %11 = tail call ptr @__cxa_allocate_exception(i64 32) #29
  %12 = tail call ptr @__errno_location() #28
  %13 = load i32, ptr %12, align 4, !tbaa !10
  call void @llvm.lifetime.start.p0(i64 16, ptr nonnull %2) #29, !noalias !18
  invoke void @_ZN3fmt3v1113vsystem_errorEiNS0_17basic_string_viewIcEENS0_17basic_format_argsINS0_7contextEEE(ptr dead_on_unwind writable sret(%"class.std::system_error") align 8 %11, i32 noundef %13, ptr nonnull @.str, i64 17, i64 0, ptr nonnull %2)
          to label %14 unwind label %15

14:                                               ; preds = %10
  call void @llvm.lifetime.end.p0(i64 16, ptr nonnull %2) #29, !noalias !18
  call void @__cxa_throw(ptr %11, ptr nonnull @_ZTISt12system_error, ptr nonnull @_ZNSt12system_errorD1Ev) #31
  unreachable

15:                                               ; preds = %10
  %16 = landingpad { ptr, i32 }
          cleanup
  call void @__cxa_free_exception(ptr %11) #29
  resume { ptr, i32 } %16

17:                                               ; preds = %_ZN4test6fcloseEP8_IO_FILE.exit, %1
  ret void
}